target datalayout = "e-m:e-p270:32:32-p271:32:32-p272:64:64-i64:64-i128:128-f80:128-n8:16:32:64-S128"
target triple = "x86_64-pc-linux-gnu"

%"class.pxrInternal_v0_24__pxrReserved__::Sdf_TextParserContext" = type { %"class.std::__cxx11::basic_string", %"class.std::__cxx11::basic_string", %"class.std::__cxx11::basic_string", %"class.std::__cxx11::basic_string", %"class.pxrInternal_v0_24__pxrReserved__::SdfLayerOffset", %"class.std::vector", %"class.std::vector.3", %"class.std::vector.8", %"class.std::map", double, %"class.pxrInternal_v0_24__pxrReserved__::SdfPath", i8, [7 x i8], %"class.std::optional", %"class.std::vector.18", %"class.std::vector.18", i8, %"class.std::vector.18", %"class.std::vector.18", %"class.std::vector.24", %"class.std::vector.29", %"class.std::vector.34", %"class.pxrInternal_v0_24__pxrReserved__::TfToken", i32, %"class.pxrInternal_v0_24__pxrReserved__::Sdf_ParserValueContext", %"class.pxrInternal_v0_24__pxrReserved__::VtValue", %"class.std::vector.52", i8, i8, i32, %"class.pxrInternal_v0_24__pxrReserved__::TfRefPtr", %"class.pxrInternal_v0_24__pxrReserved__::SdfPath", %"class.pxrInternal_v0_24__pxrReserved__::TfToken", %"class.pxrInternal_v0_24__pxrReserved__::VtValue", %"class.pxrInternal_v0_24__pxrReserved__::VtValue", i8, %"class.pxrInternal_v0_24__pxrReserved__::SdfLayerHints", %"class.std::vector.57", %"class.std::vector.57", %"class.std::vector", %"class.std::vector.62", i32, ptr }
%"class.std::__cxx11::basic_string" = type { %"struct.std::__cxx11::basic_string<char>::_Alloc_hider", i64, %union.anon }
%"struct.std::__cxx11::basic_string<char>::_Alloc_hider" = type { ptr }
%union.anon = type { i64, [8 x i8] }
%"class.pxrInternal_v0_24__pxrReserved__::SdfLayerOffset" = type { double, double }
%"class.std::vector.3" = type { %"struct.std::_Vector_base.4" }
%"struct.std::_Vector_base.4" = type { %"struct.std::_Vector_base<pxrInternal_v0_24__pxrReserved__::SdfLayerOffset, std::allocator<pxrInternal_v0_24__pxrReserved__::SdfLayerOffset>>::_Vector_impl" }
%"struct.std::_Vector_base<pxrInternal_v0_24__pxrReserved__::SdfLayerOffset, std::allocator<pxrInternal_v0_24__pxrReserved__::SdfLayerOffset>>::_Vector_impl" = type { %"struct.std::_Vector_base<pxrInternal_v0_24__pxrReserved__::SdfLayerOffset, std::allocator<pxrInternal_v0_24__pxrReserved__::SdfLayerOffset>>::_Vector_impl_data" }
%"struct.std::_Vector_base<pxrInternal_v0_24__pxrReserved__::SdfLayerOffset, std::allocator<pxrInternal_v0_24__pxrReserved__::SdfLayerOffset>>::_Vector_impl_data" = type { ptr, ptr, ptr }
%"class.std::vector.8" = type { %"struct.std::_Vector_base.9" }
%"struct.std::_Vector_base.9" = type { %"struct.std::_Vector_base<pxrInternal_v0_24__pxrReserved__::TfToken, std::allocator<pxrInternal_v0_24__pxrReserved__::TfToken>>::_Vector_impl" }
%"struct.std::_Vector_base<pxrInternal_v0_24__pxrReserved__::TfToken, std::allocator<pxrInternal_v0_24__pxrReserved__::TfToken>>::_Vector_impl" = type { %"struct.std::_Vector_base<pxrInternal_v0_24__pxrReserved__::TfToken, std::allocator<pxrInternal_v0_24__pxrReserved__::TfToken>>::_Vector_impl_data" }
%"struct.std::_Vector_base<pxrInternal_v0_24__pxrReserved__::TfToken, std::allocator<pxrInternal_v0_24__pxrReserved__::TfToken>>::_Vector_impl_data" = type { ptr, ptr, ptr }
%"class.std::map" = type { %"class.std::_Rb_tree" }
%"class.std::_Rb_tree" = type { %"struct.std::_Rb_tree<double, std::pair<const double, pxrInternal_v0_24__pxrReserved__::VtValue>, std::_Select1st<std::pair<const double, pxrInternal_v0_24__pxrReserved__::VtValue>>, std::less<double>>::_Rb_tree_impl" }
%"struct.std::_Rb_tree<double, std::pair<const double, pxrInternal_v0_24__pxrReserved__::VtValue>, std::_Select1st<std::pair<const double, pxrInternal_v0_24__pxrReserved__::VtValue>>, std::less<double>>::_Rb_tree_impl" = type { [8 x i8], %"struct.std::_Rb_tree_header" }
%"struct.std::_Rb_tree_header" = type { %"struct.std::_Rb_tree_node_base", i64 }
%"struct.std::_Rb_tree_node_base" = type { i32, ptr, ptr, ptr }
%"class.std::optional" = type { %"struct.std::_Optional_base" }
%"struct.std::_Optional_base" = type { %"struct.std::_Optional_payload" }
%"struct.std::_Optional_payload" = type { %"struct.std::_Optional_payload.base", [7 x i8] }
%"struct.std::_Optional_payload.base" = type { %"struct.std::_Optional_payload_base.base" }
%"struct.std::_Optional_payload_base.base" = type <{ %"union.std::_Optional_payload_base<std::vector<pxrInternal_v0_24__pxrReserved__::SdfPath>>::_Storage", i8 }>
%"union.std::_Optional_payload_base<std::vector<pxrInternal_v0_24__pxrReserved__::SdfPath>>::_Storage" = type { %"class.std::vector.18" }
%"class.std::vector.18" = type { %"struct.std::_Vector_base.19" }
%"struct.std::_Vector_base.19" = type { %"struct.std::_Vector_base<pxrInternal_v0_24__pxrReserved__::SdfPath, std::allocator<pxrInternal_v0_24__pxrReserved__::SdfPath>>::_Vector_impl" }
%"struct.std::_Vector_base<pxrInternal_v0_24__pxrReserved__::SdfPath, std::allocator<pxrInternal_v0_24__pxrReserved__::SdfPath>>::_Vector_impl" = type { %"struct.std::_Vector_base<pxrInternal_v0_24__pxrReserved__::SdfPath, std::allocator<pxrInternal_v0_24__pxrReserved__::SdfPath>>::_Vector_impl_data" }
%"struct.std::_Vector_base<pxrInternal_v0_24__pxrReserved__::SdfPath, std::allocator<pxrInternal_v0_24__pxrReserved__::SdfPath>>::_Vector_impl_data" = type { ptr, ptr, ptr }
%"class.std::vector.24" = type { %"struct.std::_Vector_base.25" }
%"struct.std::_Vector_base.25" = type { %"struct.std::_Vector_base<pxrInternal_v0_24__pxrReserved__::SdfReference, std::allocator<pxrInternal_v0_24__pxrReserved__::SdfReference>>::_Vector_impl" }
%"struct.std::_Vector_base<pxrInternal_v0_24__pxrReserved__::SdfReference, std::allocator<pxrInternal_v0_24__pxrReserved__::SdfReference>>::_Vector_impl" = type { %"struct.std::_Vector_base<pxrInternal_v0_24__pxrReserved__::SdfReference, std::allocator<pxrInternal_v0_24__pxrReserved__::SdfReference>>::_Vector_impl_data" }
%"struct.std::_Vector_base<pxrInternal_v0_24__pxrReserved__::SdfReference, std::allocator<pxrInternal_v0_24__pxrReserved__::SdfReference>>::_Vector_impl_data" = type { ptr, ptr, ptr }
%"class.std::vector.29" = type { %"struct.std::_Vector_base.30" }
%"struct.std::_Vector_base.30" = type { %"struct.std::_Vector_base<pxrInternal_v0_24__pxrReserved__::SdfPayload, std::allocator<pxrInternal_v0_24__pxrReserved__::SdfPayload>>::_Vector_impl" }
%"struct.std::_Vector_base<pxrInternal_v0_24__pxrReserved__::SdfPayload, std::allocator<pxrInternal_v0_24__pxrReserved__::SdfPayload>>::_Vector_impl" = type { %"struct.std::_Vector_base<pxrInternal_v0_24__pxrReserved__::SdfPayload, std::allocator<pxrInternal_v0_24__pxrReserved__::SdfPayload>>::_Vector_impl_data" }
%"struct.std::_Vector_base<pxrInternal_v0_24__pxrReserved__::SdfPayload, std::allocator<pxrInternal_v0_24__pxrReserved__::SdfPayload>>::_Vector_impl_data" = type { ptr, ptr, ptr }
%"class.std::vector.34" = type { %"struct.std::_Vector_base.35" }
%"struct.std::_Vector_base.35" = type { %"struct.std::_Vector_base<std::pair<pxrInternal_v0_24__pxrReserved__::SdfPath, pxrInternal_v0_24__pxrReserved__::SdfPath>, std::allocator<std::pair<pxrInternal_v0_24__pxrReserved__::SdfPath, pxrInternal_v0_24__pxrReserved__::SdfPath>>>::_Vector_impl" }
%"struct.std::_Vector_base<std::pair<pxrInternal_v0_24__pxrReserved__::SdfPath, pxrInternal_v0_24__pxrReserved__::SdfPath>, std::allocator<std::pair<pxrInternal_v0_24__pxrReserved__::SdfPath, pxrInternal_v0_24__pxrReserved__::SdfPath>>>::_Vector_impl" = type { %"struct.std::_Vector_base<std::pair<pxrInternal_v0_24__pxrReserved__::SdfPath, pxrInternal_v0_24__pxrReserved__::SdfPath>, std::allocator<std::pair<pxrInternal_v0_24__pxrReserved__::SdfPath, pxrInternal_v0_24__pxrReserved__::SdfPath>>>::_Vector_impl_data" }
%"struct.std::_Vector_base<std::pair<pxrInternal_v0_24__pxrReserved__::SdfPath, pxrInternal_v0_24__pxrReserved__::SdfPath>, std::allocator<std::pair<pxrInternal_v0_24__pxrReserved__::SdfPath, pxrInternal_v0_24__pxrReserved__::SdfPath>>>::_Vector_impl_data" = type { ptr, ptr, ptr }
%"class.pxrInternal_v0_24__pxrReserved__::Sdf_ParserValueContext" = type { i32, %"class.std::vector.39", i32, %"struct.pxrInternal_v0_24__pxrReserved__::SdfTupleDimensions", %"class.std::vector.44", %"class.std::vector.39", i32, %"class.std::__cxx11::basic_string", i8, %"class.std::__cxx11::basic_string", %"class.std::function", i8, %"struct.pxrInternal_v0_24__pxrReserved__::SdfTupleDimensions", %"class.std::function.49", i8, i8, %"class.std::__cxx11::basic_string" }
%"class.std::vector.44" = type { %"struct.std::_Vector_base.45" }
%"struct.std::_Vector_base.45" = type { %"struct.std::_Vector_base<pxrInternal_v0_24__pxrReserved__::Sdf_ParserHelpers::Value, std::allocator<pxrInternal_v0_24__pxrReserved__::Sdf_ParserHelpers::Value>>::_Vector_impl" }
%"struct.std::_Vector_base<pxrInternal_v0_24__pxrReserved__::Sdf_ParserHelpers::Value, std::allocator<pxrInternal_v0_24__pxrReserved__::Sdf_ParserHelpers::Value>>::_Vector_impl" = type { %"struct.std::_Vector_base<pxrInternal_v0_24__pxrReserved__::Sdf_ParserHelpers::Value, std::allocator<pxrInternal_v0_24__pxrReserved__::Sdf_ParserHelpers::Value>>::_Vector_impl_data" }
%"struct.std::_Vector_base<pxrInternal_v0_24__pxrReserved__::Sdf_ParserHelpers::Value, std::allocator<pxrInternal_v0_24__pxrReserved__::Sdf_ParserHelpers::Value>>::_Vector_impl_data" = type { ptr, ptr, ptr }
%"class.std::vector.39" = type { %"struct.std::_Vector_base.40" }
%"struct.std::_Vector_base.40" = type { %"struct.std::_Vector_base<unsigned int, std::allocator<unsigned int>>::_Vector_impl" }
%"struct.std::_Vector_base<unsigned int, std::allocator<unsigned int>>::_Vector_impl" = type { %"struct.std::_Vector_base<unsigned int, std::allocator<unsigned int>>::_Vector_impl_data" }
%"struct.std::_Vector_base<unsigned int, std::allocator<unsigned int>>::_Vector_impl_data" = type { ptr, ptr, ptr }
%"class.std::function" = type { %"class.std::_Function_base", ptr }
%"class.std::_Function_base" = type { %"union.std::_Any_data", ptr }
%"union.std::_Any_data" = type { %"union.std::_Nocopy_types" }
%"union.std::_Nocopy_types" = type { { i64, i64 } }
%"struct.pxrInternal_v0_24__pxrReserved__::SdfTupleDimensions" = type { [2 x i64], i64 }
%"class.std::function.49" = type { %"class.std::_Function_base", ptr }
%"class.std::vector.52" = type { %"struct.std::_Vector_base.53" }
%"struct.std::_Vector_base.53" = type { %"struct.std::_Vector_base<pxrInternal_v0_24__pxrReserved__::VtDictionary, std::allocator<pxrInternal_v0_24__pxrReserved__::VtDictionary>>::_Vector_impl" }
%"struct.std::_Vector_base<pxrInternal_v0_24__pxrReserved__::VtDictionary, std::allocator<pxrInternal_v0_24__pxrReserved__::VtDictionary>>::_Vector_impl" = type { %"struct.std::_Vector_base<pxrInternal_v0_24__pxrReserved__::VtDictionary, std::allocator<pxrInternal_v0_24__pxrReserved__::VtDictionary>>::_Vector_impl_data" }
%"struct.std::_Vector_base<pxrInternal_v0_24__pxrReserved__::VtDictionary, std::allocator<pxrInternal_v0_24__pxrReserved__::VtDictionary>>::_Vector_impl_data" = type { ptr, ptr, ptr }
%"class.pxrInternal_v0_24__pxrReserved__::TfRefPtr" = type { ptr }
%"class.pxrInternal_v0_24__pxrReserved__::SdfPath" = type { %"struct.pxrInternal_v0_24__pxrReserved__::Sdf_PathNodeHandleImpl", %"struct.pxrInternal_v0_24__pxrReserved__::Sdf_PathNodeHandleImpl.16" }
%"struct.pxrInternal_v0_24__pxrReserved__::Sdf_PathNodeHandleImpl" = type { %"struct.pxrInternal_v0_24__pxrReserved__::Sdf_Pool<pxrInternal_v0_24__pxrReserved__::Sdf_PathPrimTag, 24, 8>::Handle" }
%"struct.pxrInternal_v0_24__pxrReserved__::Sdf_Pool<pxrInternal_v0_24__pxrReserved__::Sdf_PathPrimTag, 24, 8>::Handle" = type { i32 }
%"struct.pxrInternal_v0_24__pxrReserved__::Sdf_PathNodeHandleImpl.16" = type { %"struct.pxrInternal_v0_24__pxrReserved__::Sdf_Pool<pxrInternal_v0_24__pxrReserved__::Sdf_PathPropTag, 24, 8>::Handle" }
%"struct.pxrInternal_v0_24__pxrReserved__::Sdf_Pool<pxrInternal_v0_24__pxrReserved__::Sdf_PathPropTag, 24, 8>::Handle" = type { i32 }
%"class.pxrInternal_v0_24__pxrReserved__::TfToken" = type { %"class.pxrInternal_v0_24__pxrReserved__::TfPointerAndBits" }
%"class.pxrInternal_v0_24__pxrReserved__::TfPointerAndBits" = type { ptr }
%"class.pxrInternal_v0_24__pxrReserved__::VtValue" = type { %"union.std::aligned_storage<8, 8>::type", %"class.pxrInternal_v0_24__pxrReserved__::TfPointerAndBits.51" }
%"union.std::aligned_storage<8, 8>::type" = type { [8 x i8] }
%"class.pxrInternal_v0_24__pxrReserved__::TfPointerAndBits.51" = type { ptr }
%"class.pxrInternal_v0_24__pxrReserved__::SdfLayerHints" = type { i8 }
%"class.std::vector.57" = type { %"struct.std::_Vector_base.58" }
%"struct.std::_Vector_base.58" = type { %"struct.std::_Vector_base<std::vector<pxrInternal_v0_24__pxrReserved__::TfToken>, std::allocator<std::vector<pxrInternal_v0_24__pxrReserved__::TfToken>>>::_Vector_impl" }
%"struct.std::_Vector_base<std::vector<pxrInternal_v0_24__pxrReserved__::TfToken>, std::allocator<std::vector<pxrInternal_v0_24__pxrReserved__::TfToken>>>::_Vector_impl" = type { %"struct.std::_Vector_base<std::vector<pxrInternal_v0_24__pxrReserved__::TfToken>, std::allocator<std::vector<pxrInternal_v0_24__pxrReserved__::TfToken>>>::_Vector_impl_data" }
%"struct.std::_Vector_base<std::vector<pxrInternal_v0_24__pxrReserved__::TfToken>, std::allocator<std::vector<pxrInternal_v0_24__pxrReserved__::TfToken>>>::_Vector_impl_data" = type { ptr, ptr, ptr }
%"class.std::vector" = type { %"struct.std::_Vector_base" }
%"struct.std::_Vector_base" = type { %"struct.std::_Vector_base<std::__cxx11::basic_string<char>, std::allocator<std::__cxx11::basic_string<char>>>::_Vector_impl" }
%"struct.std::_Vector_base<std::__cxx11::basic_string<char>, std::allocator<std::__cxx11::basic_string<char>>>::_Vector_impl" = type { %"struct.std::_Vector_base<std::__cxx11::basic_string<char>, std::allocator<std::__cxx11::basic_string<char>>>::_Vector_impl_data" }
%"struct.std::_Vector_base<std::__cxx11::basic_string<char>, std::allocator<std::__cxx11::basic_string<char>>>::_Vector_impl_data" = type { ptr, ptr, ptr }
%"class.std::vector.62" = type { %"struct.std::_Vector_base.63" }
%"struct.std::_Vector_base.63" = type { %"struct.std::_Vector_base<std::vector<std::__cxx11::basic_string<char>>, std::allocator<std::vector<std::__cxx11::basic_string<char>>>>::_Vector_impl" }
%"struct.std::_Vector_base<std::vector<std::__cxx11::basic_string<char>>, std::allocator<std::vector<std::__cxx11::basic_string<char>>>>::_Vector_impl" = type { %"struct.std::_Vector_base<std::vector<std::__cxx11::basic_string<char>>, std::allocator<std::vector<std::__cxx11::basic_string<char>>>>::_Vector_impl_data" }
%"struct.std::_Vector_base<std::vector<std::__cxx11::basic_string<char>>, std::allocator<std::vector<std::__cxx11::basic_string<char>>>>::_Vector_impl_data" = type { ptr, ptr, ptr }
%"class.pxrInternal_v0_24__pxrReserved__::VtDictionary" = type { %"class.std::unique_ptr" }
%"class.std::unique_ptr" = type { %"struct.std::__uniq_ptr_data" }
%"struct.std::__uniq_ptr_data" = type { %"class.std::__uniq_ptr_impl" }
%"class.std::__uniq_ptr_impl" = type { %"class.std::tuple" }
%"class.std::tuple" = type { %"struct.std::_Tuple_impl" }
%"struct.std::_Tuple_impl" = type { %"struct.std::_Head_base.94" }
%"struct.std::_Head_base.94" = type { ptr }

; Function Attrs: mustprogress nounwind uwtable
define linkonce_odr noundef nonnull align 8 dereferenceable(8) ptr @_ZNSt6vectorIN32pxrInternal_v0_24__pxrReserved__12VtDictionaryESaIS1_EEixEm(ptr noundef nonnull align 8 dereferenceable(24) %0, i64 noundef %1) #3 comdat align 2 {
  %3 = alloca ptr, align 8
  %4 = alloca i64, align 8
  store ptr %0, ptr %3, align 8
  store i64 %1, ptr %4, align 8
  %5 = load ptr, ptr %3, align 8
  %6 = getelementptr inbounds nuw %"struct.std::_Vector_base.53", ptr %5, i32 0, i32 0
  %7 = getelementptr inbounds nuw %"struct.std::_Vector_base<pxrInternal_v0_24__pxrReserved__::VtDictionary, std::allocator<pxrInternal_v0_24__pxrReserved__::VtDictionary>>::_Vector_impl_data", ptr %6, i32 0, i32 0
  %8 = load ptr, ptr %7, align 8
  %9 = load i64, ptr %4, align 8
  %10 = getelementptr inbounds %"class.pxrInternal_v0_24__pxrReserved__::VtDictionary", ptr %8, i64 %9
  ret ptr %10
}

; Function Attrs: mustprogress nounwind uwtable
define linkonce_odr noundef i64 @_ZNKSt6vectorIN32pxrInternal_v0_24__pxrReserved__12VtDictionaryESaIS1_EE4sizeEv(ptr noundef nonnull align 8 dereferenceable(24) %0) #3 comdat align 2 {
  %2 = alloca ptr, align 8
  store ptr %0, ptr %2, align 8
  %3 = load ptr, ptr %2, align 8
  %4 = getelementptr inbounds nuw %"struct.std::_Vector_base.53", ptr %3, i32 0, i32 0
  %5 = getelementptr inbounds nuw %"struct.std::_Vector_base<pxrInternal_v0_24__pxrReserved__::VtDictionary, std::allocator<pxrInternal_v0_24__pxrReserved__::VtDictionary>>::_Vector_impl_data", ptr %4, i32 0, i32 1
  %6 = load ptr, ptr %5, align 8
  %7 = getelementptr inbounds nuw %"struct.std::_Vector_base.53", ptr %3, i32 0, i32 0
  %8 = getelementptr inbounds nuw %"struct.std::_Vector_base<pxrInternal_v0_24__pxrReserved__::VtDictionary, std::allocator<pxrInternal_v0_24__pxrReserved__::VtDictionary>>::_Vector_impl_data", ptr %7, i32 0, i32 0
  %9 = load ptr, ptr %8, align 8
  %10 = ptrtoint ptr %6 to i64
  %11 = ptrtoint ptr %9 to i64
  %12 = sub i64 %10, %11
  %13 = sdiv exact i64 %12, 8
  ret i64 %13
}

; Function Attrs: mustprogress uwtable
define void @_ZN32pxrInternal_v0_24__pxrReserved__24Sdf_TextFileFormatParser27_DictionaryInsertDictionaryERKNS_17Sdf_ParserHelpers5ValueEPNS_21Sdf_TextParserContextE(ptr noundef nonnull align 8 dereferenceable(72) %0, ptr noundef %1) #0 {
  %3 = alloca ptr, align 8
  %4 = alloca ptr, align 8
  %5 = alloca i64, align 8
  store ptr %0, ptr %3, align 8
  store ptr %1, ptr %4, align 8
  %6 = load ptr, ptr %4, align 8
  %7 = getelementptr inbounds nuw %"class.pxrInternal_v0_24__pxrReserved__::Sdf_TextParserContext", ptr %6, i32 0, i32 26
  %8 = call noundef i64 @_ZNKSt6vectorIN32pxrInternal_v0_24__pxrReserved__12VtDictionaryESaIS1_EE4sizeEv(ptr noundef nonnull align 8 dereferenceable(24) %7) #6
  store i64 %8, ptr %5, align 8
  %9 = load ptr, ptr %4, align 8
  %10 = getelementptr inbounds nuw %"class.pxrInternal_v0_24__pxrReserved__::Sdf_TextParserContext", ptr %9, i32 0, i32 26
  %11 = load i64, ptr %5, align 8
  %12 = sub i64 %11, 2
  %13 = call noundef nonnull align 8 dereferenceable(8) ptr @_ZNSt6vectorIN32pxrInternal_v0_24__pxrReserved__12VtDictionaryESaIS1_EEixEm(ptr noundef nonnull align 8 dereferenceable(24) %10, i64 noundef %12) #6
  %14 = load ptr, ptr %3, align 8
  %15 = call noundef nonnull align 8 dereferenceable(32) ptr @_ZNK32pxrInternal_v0_24__pxrReserved__17Sdf_ParserHelpers5Value3GetINSt7__cxx1112basic_stringIcSt11char_traitsIcESaIcEEEEENS0_8_GetImplIT_vE10ResultTypeEv(ptr noundef nonnull align 8 dereferenceable(72) %14)
  %16 = call noundef nonnull align 8 dereferenceable(16) ptr @_ZN32pxrInternal_v0_24__pxrReserved__12VtDictionaryixERKNSt7__cxx1112basic_stringIcSt11char_traitsIcESaIcEEE(ptr noundef nonnull align 8 dereferenceable(8) %13, ptr noundef nonnull align 8 dereferenceable(32) %15)
  %17 = load ptr, ptr %4, align 8
  %18 = getelementptr inbounds nuw %"class.pxrInternal_v0_24__pxrReserved__::Sdf_TextParserContext", ptr %17, i32 0, i32 26
  %19 = load i64, ptr %5, align 8
  %20 = sub i64 %19, 1
  %21 = call noundef nonnull align 8 dereferenceable(8) ptr @_ZNSt6vectorIN32pxrInternal_v0_24__pxrReserved__12VtDictionaryESaIS1_EEixEm(ptr noundef nonnull align 8 dereferenceable(24) %18, i64 noundef %20) #6
  call void @_ZN32pxrInternal_v0_24__pxrReserved__7VtValue4SwapINS_12VtDictionaryEEENSt9enable_ifIXsr3std7is_sameIT_NS_17Vt_ValueGetStoredIS4_E4TypeEEE5valueEvE4typeERS4_(ptr noundef nonnull align 8 dereferenceable(16) %16, ptr noundef nonnull align 8 dereferenceable(8) %21)
  %22 = load ptr, ptr %4, align 8
  %23 = getelementptr inbounds nuw %"class.pxrInternal_v0_24__pxrReserved__::Sdf_TextParserContext", ptr %22, i32 0, i32 26
  %24 = load i64, ptr %5, align 8
  %25 = sub i64 %24, 1
  %26 = call noundef nonnull align 8 dereferenceable(8) ptr @_ZNSt6vectorIN32pxrInternal_v0_24__pxrReserved__12VtDictionaryESaIS1_EEixEm(ptr noundef nonnull align 8 dereferenceable(24) %23, i64 noundef %25) #6
  call void @_ZN32pxrInternal_v0_24__pxrReserved__12VtDictionary5clearEv(ptr noundef nonnull align 8 dereferenceable(8) %26)
  ret void
}