; Function Attrs: mustprogress uwtable
define void @_ZN32pxrInternal_v0_24__pxrReserved__24Sdf_TextFileFormatParser27_DictionaryInsertDictionaryERKNS_17Sdf_ParserHelpers5ValueEPNS_21Sdf_TextParserContextE(ptr noundef nonnull align 8 dereferenceable(72) %0, ptr nocapture noundef readonly %1) local_unnamed_addr #0 {
  %3 = getelementptr inbounds nuw i8, ptr %1, i64 856
  %4 = getelementptr inbounds i8, ptr %1, i64 864
  %5 = load ptr, ptr %4, align 8
  %6 = load ptr, ptr %3, align 8
  %7 = ptrtoint ptr %5 to i64
  %8 = ptrtoint ptr %6 to i64
  %9 = sub i64 %7, %8
  %10 = ashr exact i64 %9, 3
  %11 = getelementptr i8, ptr %6, i64 %9
  %12 = getelementptr i8, ptr %11, i64 -16
  %13 = tail call noundef nonnull align 8 dereferenceable(32) ptr @_ZNK32pxrInternal_v0_24__pxrReserved__17Sdf_ParserHelpers5Value3GetINSt7__cxx1112basic_stringIcSt11char_traitsIcESaIcEEEEENS0_8_GetImplIT_vE10ResultTypeEv(ptr noundef nonnull align 8 dereferenceable(72) %0)
  %14 = tail call noundef nonnull align 8 dereferenceable(16) ptr @_ZN32pxrInternal_v0_24__pxrReserved__12VtDictionaryixERKNSt7__cxx1112basic_stringIcSt11char_traitsIcESaIcEEE(ptr noundef nonnull align 8 dereferenceable(8) %12, ptr noundef nonnull align 8 dereferenceable(32) %13)
  %15 = add nsw i64 %10, -1
  %16 = load ptr, ptr %3, align 8
  %17 = getelementptr inbounds %"class.pxrInternal_v0_24__pxrReserved__::VtDictionary", ptr %16, i64 %15
  tail call void @_ZN32pxrInternal_v0_24__pxrReserved__7VtValue4SwapINS_12VtDictionaryEEENSt9enable_ifIXsr3std7is_sameIT_NS_17Vt_ValueGetStoredIS4_E4TypeEEE5valueEvE4typeERS4_(ptr noundef nonnull align 8 dereferenceable(16) %14, ptr noundef nonnull align 8 dereferenceable(8) %17)
  %18 = load ptr, ptr %3, align 8
  %19 = getelementptr inbounds %"class.pxrInternal_v0_24__pxrReserved__::VtDictionary", ptr %18, i64 %15
  tail call void @_ZN32pxrInternal_v0_24__pxrReserved__12VtDictionary5clearEv(ptr noundef nonnull align 8 dereferenceable(8) %19)
  ret void
}